; Function Attrs: mustprogress uwtable
define dso_local void @_ZNK4i18n12phonenumbers15PhoneNumberUtil44FormatNationalNumberWithPreferredCarrierCodeERKNS0_11PhoneNumberERKNSt7__cxx1112basic_stringIcSt11char_traitsIcESaIcEEEPSA_(ptr nocapture noundef nonnull readonly align 8 dereferenceable(64) %0, ptr nocapture noundef nonnull readonly align 8 dereferenceable(72) %1, ptr noundef nonnull align 8 dereferenceable(32) %2, ptr noundef %3) local_unnamed_addr #4 align 2 {
  %5 = getelementptr inbounds i8, ptr %1, i64 40
  %6 = load ptr, ptr %5, align 8
  %7 = tail call noundef zeroext i1 @_ZNKSt7__cxx1112basic_stringIcSt11char_traitsIcESaIcEE5emptyEv(ptr noundef nonnull align 8 dereferenceable(32) %6) #26
  %8 = load ptr, ptr %5, align 8
  %spec.select = select i1 %7, ptr %2, ptr %8
  tail call void @_ZNK4i18n12phonenumbers15PhoneNumberUtil35FormatNationalNumberWithCarrierCodeERKNS0_11PhoneNumberERKNSt7__cxx1112basic_stringIcSt11char_traitsIcESaIcEEEPSA_(ptr noundef nonnull align 8 dereferenceable(64) %0, ptr noundef nonnull align 8 dereferenceable(72) %1, ptr noundef nonnull align 8 dereferenceable(32) %spec.select, ptr noundef %3)
  ret void
}